; Function Attrs: nounwind sspstrong uwtable
define dso_local void @rb_parser_printf(ptr noundef captures(none) %0, ptr noundef %1, ...) local_unnamed_addr #0 {
  %3 = alloca [1 x %struct.__va_list_tag], align 16
  call void @llvm.lifetime.start.p0(i64 24, ptr nonnull %3) #35
  %4 = getelementptr inbounds nuw i8, ptr %0, i64 248
  %5 = load i64, ptr %4, align 8, !tbaa !188
  %6 = icmp eq i64 %5, 4
  br i1 %6, label %7, label %9

7:                                                ; preds = %2
  %8 = tail call i64 @rb_str_new_static(ptr noundef null, i64 noundef 0) #35
  store i64 %8, ptr %4, align 8, !tbaa !188
  br label %9

9:                                                ; preds = %7, %2
  %.0 = phi i64 [ %8, %7 ], [ %5, %2 ]
  call void @llvm.va_start.p0(ptr nonnull %3)
  %10 = call i64 @rb_str_vcatf(i64 noundef %.0, ptr noundef %1, ptr noundef nonnull %3) #35
  call void @llvm.va_end.p0(ptr nonnull %3)
  %11 = inttoptr i64 %.0 to ptr
  %12 = getelementptr inbounds nuw i8, ptr %11, i64 16
  %13 = load i64, ptr %12, align 8, !tbaa !16
  %14 = icmp sgt i64 %13, 0
  br i1 %14, label %15, label %char_at_end.exit.thread

15:                                               ; preds = %9
  %16 = load i64, ptr %11, align 8, !tbaa !11, !noalias !189
  %17 = and i64 %16, 8192
  %.not.i.i.i = icmp eq i64 %17, 0
  %18 = getelementptr inbounds nuw i8, ptr %11, i64 24
  br i1 %.not.i.i.i, label %char_at_end.exit, label %19

19:                                               ; preds = %15
  %.sroa.2.0.copyload.i.i = load ptr, ptr %18, align 8
  br label %char_at_end.exit

char_at_end.exit:                                 ; preds = %15, %19
  %.sroa.2.0.i.i = phi ptr [ %.sroa.2.0.copyload.i.i, %19 ], [ %18, %15 ]
  %20 = getelementptr i8, ptr %.sroa.2.0.i.i, i64 %13
  %21 = getelementptr i8, ptr %20, i64 -1
  %22 = load i8, ptr %21, align 1, !tbaa !25
  %23 = icmp eq i8 %22, 10
  br i1 %23, label %24, label %char_at_end.exit.thread

24:                                               ; preds = %char_at_end.exit
  %25 = getelementptr inbounds nuw i8, ptr %0, i64 256
  %26 = load i64, ptr %25, align 8, !tbaa !192
  %27 = call i64 @rb_io_write(i64 noundef %26, i64 noundef %.0) #35
  store i64 4, ptr %4, align 8, !tbaa !188
  br label %char_at_end.exit.thread

char_at_end.exit.thread:                          ; preds = %9, %24, %char_at_end.exit
  call void @llvm.lifetime.end.p0(i64 24, ptr nonnull %3) #35
  ret void
}